; Function Attrs: mustprogress uwtable
define internal fastcc void @_ZL12mkElimClauseRN6Gluco23vecIjEEiRNS_6ClauseE(ptr nocapture noundef nonnull align 8 dereferenceable(16) %0, i32 noundef %1, ptr nocapture noundef nonnull readonly align 4 dereferenceable(12) %2) unnamed_addr #2 {
  %4 = getelementptr inbounds i8, ptr %0, i64 8
  %5 = load i32, ptr %4, align 8
  %6 = load i96, ptr %2, align 4
  %7 = lshr i96 %6, 32
  %8 = trunc i96 %7 to i32
  %9 = icmp sgt i32 %8, 0
  br i1 %9, label %.lr.ph, label %._crit_edge

.lr.ph:                                           ; preds = %3
  %10 = getelementptr inbounds i8, ptr %2, i64 12
  %11 = getelementptr inbounds i8, ptr %0, i64 12
  br label %12

12:                                               ; preds = %.lr.ph, %_ZN6Gluco23vecIjE4pushERKj.exit
  %indvars.iv = phi i64 [ 0, %.lr.ph ], [ %indvars.iv.next, %_ZN6Gluco23vecIjE4pushERKj.exit ]
  %.031 = phi i32 [ -1, %.lr.ph ], [ %spec.select, %_ZN6Gluco23vecIjE4pushERKj.exit ]
  %13 = getelementptr inbounds [0 x %union.anon], ptr %10, i64 0, i64 %indvars.iv
  %.sroa.01.0.copyload = load i32, ptr %13, align 4
  %14 = load i32, ptr %4, align 8
  %15 = load i32, ptr %11, align 4
  %16 = icmp eq i32 %14, %15
  br i1 %16, label %17, label %._ZN6Gluco23vecIjE8capacityEi.exit_crit_edge.i

._ZN6Gluco23vecIjE8capacityEi.exit_crit_edge.i:   ; preds = %12
  %.pre.i = load ptr, ptr %0, align 8
  br label %_ZN6Gluco23vecIjE4pushERKj.exit

17:                                               ; preds = %12
  %18 = ashr i32 %14, 1
  %19 = and i32 %18, -2
  %20 = tail call i32 @llvm.smax.i32(i32 %19, i32 0)
  %21 = add nuw nsw i32 %20, 2
  %22 = sub nsw i32 2147483647, %14
  %23 = icmp ugt i32 %21, %22
  br i1 %23, label %.loopexit, label %24

24:                                               ; preds = %17
  %25 = load ptr, ptr %0, align 8
  %26 = add nsw i32 %21, %14
  store i32 %26, ptr %11, align 4
  %27 = sext i32 %26 to i64
  %28 = shl nsw i64 %27, 2
  %29 = tail call ptr @realloc(ptr noundef %25, i64 noundef %28) #26
  store ptr %29, ptr %0, align 8
  %30 = icmp eq ptr %29, null
  br i1 %30, label %31, label %._ZN6Gluco23vecIjE4pushERKj.exit_crit_edge

._ZN6Gluco23vecIjE4pushERKj.exit_crit_edge:       ; preds = %24
  %.pre = load i32, ptr %4, align 8
  br label %_ZN6Gluco23vecIjE4pushERKj.exit

31:                                               ; preds = %24
  %32 = tail call ptr @__errno_location() #22
  %33 = load i32, ptr %32, align 4
  %34 = icmp eq i32 %33, 12
  tail call void @llvm.assume(i1 %34)
  br label %.loopexit

.loopexit:                                        ; preds = %17, %31
  %35 = tail call ptr @__cxa_allocate_exception(i64 1) #23
  tail call void @__cxa_throw(ptr %35, ptr nonnull @_ZTIN6Gluco220OutOfMemoryExceptionE, ptr null) #24
  unreachable

_ZN6Gluco23vecIjE4pushERKj.exit:                  ; preds = %._ZN6Gluco23vecIjE4pushERKj.exit_crit_edge, %._ZN6Gluco23vecIjE8capacityEi.exit_crit_edge.i
  %36 = phi i32 [ %14, %._ZN6Gluco23vecIjE8capacityEi.exit_crit_edge.i ], [ %.pre, %._ZN6Gluco23vecIjE4pushERKj.exit_crit_edge ]
  %37 = phi ptr [ %.pre.i, %._ZN6Gluco23vecIjE8capacityEi.exit_crit_edge.i ], [ %29, %._ZN6Gluco23vecIjE4pushERKj.exit_crit_edge ]
  %38 = add nsw i32 %36, 1
  store i32 %38, ptr %4, align 8
  %39 = sext i32 %36 to i64
  %40 = getelementptr inbounds i32, ptr %37, i64 %39
  store i32 %.sroa.01.0.copyload, ptr %40, align 4
  %.sroa.0.0.copyload = load i32, ptr %13, align 4
  %41 = ashr i32 %.sroa.0.0.copyload, 1
  %42 = icmp eq i32 %41, %1
  %43 = trunc i64 %indvars.iv to i32
  %44 = add i32 %5, %43
  %spec.select = select i1 %42, i32 %44, i32 %.031
  %indvars.iv.next = add nuw nsw i64 %indvars.iv, 1
  %45 = load i96, ptr %2, align 4
  %46 = trunc i96 %45 to i64
  %47 = ashr i64 %46, 32
  %48 = icmp slt i64 %indvars.iv.next, %47
  br i1 %48, label %12, label %._crit_edge.loopexit, !llvm.loop !53

._crit_edge.loopexit:                             ; preds = %_ZN6Gluco23vecIjE4pushERKj.exit
  %49 = sext i32 %spec.select to i64
  br label %._crit_edge

._crit_edge:                                      ; preds = %3, %._crit_edge.loopexit
  %.0.lcssa = phi i64 [ %49, %._crit_edge.loopexit ], [ -1, %3 ]
  %.pre-phi = sext i32 %5 to i64
  %50 = load ptr, ptr %0, align 8
  %51 = getelementptr inbounds i32, ptr %50, i64 %.0.lcssa
  %52 = load i32, ptr %51, align 4
  %53 = getelementptr inbounds i32, ptr %50, i64 %.pre-phi
  %54 = load i32, ptr %53, align 4
  store i32 %54, ptr %51, align 4
  %55 = load ptr, ptr %0, align 8
  %56 = getelementptr inbounds i32, ptr %55, i64 %.pre-phi
  store i32 %52, ptr %56, align 4
  %57 = load i96, ptr %2, align 4
  %58 = load i32, ptr %4, align 8
  %59 = getelementptr inbounds i8, ptr %0, i64 12
  %60 = load i32, ptr %59, align 4
  %61 = icmp eq i32 %58, %60
  br i1 %61, label %62, label %._ZN6Gluco23vecIjE8capacityEi.exit_crit_edge.i24

._ZN6Gluco23vecIjE8capacityEi.exit_crit_edge.i24: ; preds = %._crit_edge
  %.pre.i25 = load ptr, ptr %0, align 8
  br label %_ZN6Gluco23vecIjE4pushERKj.exit26

62:                                               ; preds = %._crit_edge
  %63 = ashr i32 %58, 1
  %64 = and i32 %63, -2
  %65 = tail call i32 @llvm.smax.i32(i32 %64, i32 0)
  %66 = add nuw nsw i32 %65, 2
  %67 = sub nsw i32 2147483647, %58
  %68 = icmp ugt i32 %66, %67
  br i1 %68, label %80, label %69

69:                                               ; preds = %62
  %70 = load ptr, ptr %0, align 8
  %71 = add nsw i32 %66, %58
  store i32 %71, ptr %59, align 4
  %72 = sext i32 %71 to i64
  %73 = shl nsw i64 %72, 2
  %74 = tail call ptr @realloc(ptr noundef %70, i64 noundef %73) #26
  store ptr %74, ptr %0, align 8
  %75 = icmp eq ptr %74, null
  br i1 %75, label %76, label %._ZN6Gluco23vecIjE4pushERKj.exit26_crit_edge

._ZN6Gluco23vecIjE4pushERKj.exit26_crit_edge:     ; preds = %69
  %.pre33 = load i32, ptr %4, align 8
  br label %_ZN6Gluco23vecIjE4pushERKj.exit26

76:                                               ; preds = %69
  %77 = tail call ptr @__errno_location() #22
  %78 = load i32, ptr %77, align 4
  %79 = icmp eq i32 %78, 12
  tail call void @llvm.assume(i1 %79)
  br label %80

80:                                               ; preds = %76, %62
  %81 = tail call ptr @__cxa_allocate_exception(i64 1) #23
  tail call void @__cxa_throw(ptr %81, ptr nonnull @_ZTIN6Gluco220OutOfMemoryExceptionE, ptr null) #24
  unreachable

_ZN6Gluco23vecIjE4pushERKj.exit26:                ; preds = %._ZN6Gluco23vecIjE4pushERKj.exit26_crit_edge, %._ZN6Gluco23vecIjE8capacityEi.exit_crit_edge.i24
  %82 = phi i32 [ %58, %._ZN6Gluco23vecIjE8capacityEi.exit_crit_edge.i24 ], [ %.pre33, %._ZN6Gluco23vecIjE4pushERKj.exit26_crit_edge ]
  %83 = phi ptr [ %.pre.i25, %._ZN6Gluco23vecIjE8capacityEi.exit_crit_edge.i24 ], [ %74, %._ZN6Gluco23vecIjE4pushERKj.exit26_crit_edge ]
  %84 = lshr i96 %57, 32
  %85 = trunc i96 %84 to i32
  %86 = add nsw i32 %82, 1
  store i32 %86, ptr %4, align 8
  %87 = sext i32 %82 to i64
  %88 = getelementptr inbounds i32, ptr %83, i64 %87
  store i32 %85, ptr %88, align 4
  ret void
}